; ModuleID = 'source-C-CXX/60/39.cpp'
source_filename = "source-C-CXX/60/39.cpp"
target datalayout = "e-m:e-p270:32:32-p271:32:32-p272:64:64-i64:64-f80:128-n8:16:32:64-S128"
target triple = "x86_64-pc-linux-gnu"

%"class.std::ios_base::Init" = type { i8 }
%"class.std::basic_istream" = type { i32 (...)**, i64, %"class.std::basic_ios" }
%"class.std::basic_ios" = type { %"class.std::ios_base", %"class.std::basic_ostream"*, i8, i8, %"class.std::basic_streambuf"*, %"class.std::ctype"*, %"class.std::num_put"*, %"class.std::num_get"* }
%"class.std::ios_base" = type { i32 (...)**, i64, i64, i32, i32, i32, %"struct.std::ios_base::_Callback_list"*, %"struct.std::ios_base::_Words", [8 x %"struct.std::ios_base::_Words"], i32, %"struct.std::ios_base::_Words"*, %"class.std::locale" }
%"struct.std::ios_base::_Callback_list" = type { %"struct.std::ios_base::_Callback_list"*, void (i32, %"class.std::ios_base"*, i32)*, i32, i32 }
%"struct.std::ios_base::_Words" = type { i8*, i64 }
%"class.std::locale" = type { %"class.std::locale::_Impl"* }
%"class.std::locale::_Impl" = type { i32, %"class.std::locale::facet"**, i64, %"class.std::locale::facet"**, i8** }
%"class.std::locale::facet" = type <{ i32 (...)**, i32, [4 x i8] }>
%"class.std::basic_ostream" = type { i32 (...)**, %"class.std::basic_ios" }
%"class.std::basic_streambuf" = type { i32 (...)**, i8*, i8*, i8*, i8*, i8*, i8*, %"class.std::locale" }
%"class.std::ctype" = type <{ %"class.std::locale::facet.base", [4 x i8], %struct.__locale_struct*, i8, [7 x i8], i32*, i32*, i16*, i8, [256 x i8], [256 x i8], i8, [6 x i8] }>
%"class.std::locale::facet.base" = type <{ i32 (...)**, i32 }>
%struct.__locale_struct = type { [13 x %struct.__locale_data*], i16*, i32*, i32*, [13 x i8*] }
%struct.__locale_data = type opaque
%"class.std::num_put" = type { %"class.std::locale::facet.base", [4 x i8] }
%"class.std::num_get" = type { %"class.std::locale::facet.base", [4 x i8] }

@_ZStL8__ioinit = internal global %"class.std::ios_base::Init" zeroinitializer, align 1
@__dso_handle = external hidden global i8
@_ZSt3cin = external global %"class.std::basic_istream", align 8
@_ZSt4cout = external global %"class.std::basic_ostream", align 8
@llvm.global_ctors = appending global [1 x { i32, void ()*, i8* }] [{ i32, void ()*, i8* } { i32 65535, void ()* @_GLOBAL__sub_I_39.cpp, i8* null }]

declare void @_ZNSt8ios_base4InitC1Ev(%"class.std::ios_base::Init"* nonnull align 1 dereferenceable(1)) unnamed_addr #0

; Function Attrs: nounwind
declare void @_ZNSt8ios_base4InitD1Ev(%"class.std::ios_base::Init"* nonnull align 1 dereferenceable(1)) unnamed_addr #1

; Function Attrs: nofree nounwind
declare i32 @__cxa_atexit(void (i8*)*, i8*, i8*) local_unnamed_addr #2

; Function Attrs: mustprogress norecurse sspstrong uwtable
define dso_local i32 @main() local_unnamed_addr #3 {
  %1 = alloca i32, align 4
  %2 = alloca i32, align 4
  %3 = alloca [30 x i32], align 16
  %4 = bitcast [30 x i32]* %3 to i8*
  %5 = bitcast i32* %1 to i8*
  call void @llvm.lifetime.start.p0i8(i64 4, i8* nonnull %5) #8
  store i32 0, i32* %1, align 4, !tbaa !5
  %6 = bitcast i32* %2 to i8*
  call void @llvm.lifetime.start.p0i8(i64 4, i8* nonnull %6) #8
  store i32 0, i32* %2, align 4, !tbaa !5
  call void @llvm.lifetime.start.p0i8(i64 120, i8* nonnull %4) #8
  call void @llvm.memset.p0i8.i64(i8* noundef nonnull align 16 dereferenceable(120) %4, i8 0, i64 120, i1 false)
  %7 = call nonnull align 8 dereferenceable(16) %"class.std::basic_istream"* @_ZNSirsERi(%"class.std::basic_istream"* nonnull align 8 dereferenceable(16) @_ZSt3cin, i32* nonnull align 4 dereferenceable(4) %1)
  %8 = getelementptr inbounds [30 x i32], [30 x i32]* %3, i64 0, i64 1
  %9 = getelementptr inbounds [30 x i32], [30 x i32]* %3, i64 0, i64 2
  %10 = load i32, i32* %1, align 4, !tbaa !5
  %11 = icmp slt i32 %10, 1
  br i1 %11, label %149, label %12

12:                                               ; preds = %0
  %13 = getelementptr inbounds [30 x i32], [30 x i32]* %3, i64 0, i64 3
  br label %14

14:                                               ; preds = %12, %143
  %15 = phi i32 [ %146, %143 ], [ 1, %12 ]
  store i32 1, i32* %8, align 4, !tbaa !5
  store i32 1, i32* %9, align 8, !tbaa !5
  %16 = call nonnull align 8 dereferenceable(16) %"class.std::basic_istream"* @_ZNSirsERi(%"class.std::basic_istream"* nonnull align 8 dereferenceable(16) @_ZSt3cin, i32* nonnull align 4 dereferenceable(4) %2)
  %17 = load i32, i32* %2, align 4, !tbaa !5
  %18 = add i32 %17, -1
  %19 = icmp ult i32 %18, 2
  br i1 %19, label %33, label %20

20:                                               ; preds = %14
  %21 = icmp slt i32 %17, 3
  br i1 %21, label %110, label %22

22:                                               ; preds = %20
  %23 = add nuw i32 %17, 1
  %24 = zext i32 %23 to i64
  store i32 2, i32* %13, align 4, !tbaa !5
  %25 = icmp eq i32 %23, 4
  br i1 %25, label %110, label %26, !llvm.loop !9

26:                                               ; preds = %22
  %27 = add nsw i64 %24, -5
  %28 = and i64 %24, 3
  %29 = icmp ult i64 %27, 3
  br i1 %29, label %92, label %30

30:                                               ; preds = %26
  %31 = add nsw i64 %24, -4
  %32 = and i64 %31, -4
  br label %63

33:                                               ; preds = %14
  %34 = call nonnull align 8 dereferenceable(8) %"class.std::basic_ostream"* @_ZNSolsEi(%"class.std::basic_ostream"* nonnull align 8 dereferenceable(8) @_ZSt4cout, i32 1)
  %35 = bitcast %"class.std::basic_ostream"* %34 to i8**
  %36 = load i8*, i8** %35, align 8, !tbaa !11
  %37 = getelementptr i8, i8* %36, i64 -24
  %38 = bitcast i8* %37 to i64*
  %39 = load i64, i64* %38, align 8
  %40 = bitcast %"class.std::basic_ostream"* %34 to i8*
  %41 = add nsw i64 %39, 240
  %42 = getelementptr inbounds i8, i8* %40, i64 %41
  %43 = bitcast i8* %42 to %"class.std::ctype"**
  %44 = load %"class.std::ctype"*, %"class.std::ctype"** %43, align 8, !tbaa !13
  %45 = icmp eq %"class.std::ctype"* %44, null
  br i1 %45, label %46, label %47

46:                                               ; preds = %33
  call void @_ZSt16__throw_bad_castv() #9
  unreachable

47:                                               ; preds = %33
  %48 = getelementptr inbounds %"class.std::ctype", %"class.std::ctype"* %44, i64 0, i32 8
  %49 = load i8, i8* %48, align 8, !tbaa !17
  %50 = icmp eq i8 %49, 0
  br i1 %50, label %54, label %51

51:                                               ; preds = %47
  %52 = getelementptr inbounds %"class.std::ctype", %"class.std::ctype"* %44, i64 0, i32 9, i64 10
  %53 = load i8, i8* %52, align 1, !tbaa !19
  br label %60

54:                                               ; preds = %47
  call void @_ZNKSt5ctypeIcE13_M_widen_initEv(%"class.std::ctype"* nonnull align 8 dereferenceable(570) %44)
  %55 = bitcast %"class.std::ctype"* %44 to i8 (%"class.std::ctype"*, i8)***
  %56 = load i8 (%"class.std::ctype"*, i8)**, i8 (%"class.std::ctype"*, i8)*** %55, align 8, !tbaa !11
  %57 = getelementptr inbounds i8 (%"class.std::ctype"*, i8)*, i8 (%"class.std::ctype"*, i8)** %56, i64 6
  %58 = load i8 (%"class.std::ctype"*, i8)*, i8 (%"class.std::ctype"*, i8)** %57, align 8
  %59 = call signext i8 %58(%"class.std::ctype"* nonnull align 8 dereferenceable(570) %44, i8 signext 10)
  br label %60

60:                                               ; preds = %51, %54
  %61 = phi i8 [ %53, %51 ], [ %59, %54 ]
  %62 = call nonnull align 8 dereferenceable(8) %"class.std::basic_ostream"* @_ZNSo3putEc(%"class.std::basic_ostream"* nonnull align 8 dereferenceable(8) %34, i8 signext %61)
  br label %143

63:                                               ; preds = %63, %30
  %64 = phi i64 [ 4, %30 ], [ %89, %63 ]
  %65 = phi i32 [ 2, %30 ], [ %87, %63 ]
  %66 = phi i64 [ 3, %30 ], [ %84, %63 ]
  %67 = phi i64 [ %32, %30 ], [ %90, %63 ]
  %68 = add nsw i64 %66, -1
  %69 = getelementptr inbounds [30 x i32], [30 x i32]* %3, i64 0, i64 %68
  %70 = load i32, i32* %69, align 8, !tbaa !5
  %71 = add nsw i32 %70, %65
  %72 = getelementptr inbounds [30 x i32], [30 x i32]* %3, i64 0, i64 %64
  store i32 %71, i32* %72, align 16, !tbaa !5
  %73 = or i64 %64, 1
  %74 = add nsw i64 %64, -1
  %75 = getelementptr inbounds [30 x i32], [30 x i32]* %3, i64 0, i64 %74
  %76 = load i32, i32* %75, align 4, !tbaa !5
  %77 = add nsw i32 %76, %71
  %78 = getelementptr inbounds [30 x i32], [30 x i32]* %3, i64 0, i64 %73
  store i32 %77, i32* %78, align 4, !tbaa !5
  %79 = or i64 %64, 2
  %80 = getelementptr inbounds [30 x i32], [30 x i32]* %3, i64 0, i64 %64
  %81 = load i32, i32* %80, align 16, !tbaa !5
  %82 = add nsw i32 %81, %77
  %83 = getelementptr inbounds [30 x i32], [30 x i32]* %3, i64 0, i64 %79
  store i32 %82, i32* %83, align 8, !tbaa !5
  %84 = or i64 %64, 3
  %85 = getelementptr inbounds [30 x i32], [30 x i32]* %3, i64 0, i64 %73
  %86 = load i32, i32* %85, align 4, !tbaa !5
  %87 = add nsw i32 %86, %82
  %88 = getelementptr inbounds [30 x i32], [30 x i32]* %3, i64 0, i64 %84
  store i32 %87, i32* %88, align 4, !tbaa !5
  %89 = add nuw nsw i64 %64, 4
  %90 = add i64 %67, -4
  %91 = icmp eq i64 %90, 0
  br i1 %91, label %92, label %63, !llvm.loop !9

92:                                               ; preds = %63, %26
  %93 = phi i64 [ 4, %26 ], [ %89, %63 ]
  %94 = phi i32 [ 2, %26 ], [ %87, %63 ]
  %95 = phi i64 [ 3, %26 ], [ %84, %63 ]
  %96 = icmp eq i64 %28, 0
  br i1 %96, label %110, label %97

97:                                               ; preds = %92, %97
  %98 = phi i64 [ %107, %97 ], [ %93, %92 ]
  %99 = phi i32 [ %105, %97 ], [ %94, %92 ]
  %100 = phi i64 [ %98, %97 ], [ %95, %92 ]
  %101 = phi i64 [ %108, %97 ], [ %28, %92 ]
  %102 = add nsw i64 %100, -1
  %103 = getelementptr inbounds [30 x i32], [30 x i32]* %3, i64 0, i64 %102
  %104 = load i32, i32* %103, align 4, !tbaa !5
  %105 = add nsw i32 %104, %99
  %106 = getelementptr inbounds [30 x i32], [30 x i32]* %3, i64 0, i64 %98
  store i32 %105, i32* %106, align 4, !tbaa !5
  %107 = add nuw nsw i64 %98, 1
  %108 = add i64 %101, -1
  %109 = icmp eq i64 %108, 0
  br i1 %109, label %110, label %97, !llvm.loop !20

110:                                              ; preds = %92, %97, %22, %20
  %111 = sext i32 %17 to i64
  %112 = getelementptr inbounds [30 x i32], [30 x i32]* %3, i64 0, i64 %111
  %113 = load i32, i32* %112, align 4, !tbaa !5
  %114 = call nonnull align 8 dereferenceable(8) %"class.std::basic_ostream"* @_ZNSolsEi(%"class.std::basic_ostream"* nonnull align 8 dereferenceable(8) @_ZSt4cout, i32 %113)
  %115 = bitcast %"class.std::basic_ostream"* %114 to i8**
  %116 = load i8*, i8** %115, align 8, !tbaa !11
  %117 = getelementptr i8, i8* %116, i64 -24
  %118 = bitcast i8* %117 to i64*
  %119 = load i64, i64* %118, align 8
  %120 = bitcast %"class.std::basic_ostream"* %114 to i8*
  %121 = add nsw i64 %119, 240
  %122 = getelementptr inbounds i8, i8* %120, i64 %121
  %123 = bitcast i8* %122 to %"class.std::ctype"**
  %124 = load %"class.std::ctype"*, %"class.std::ctype"** %123, align 8, !tbaa !13
  %125 = icmp eq %"class.std::ctype"* %124, null
  br i1 %125, label %126, label %127

126:                                              ; preds = %110
  call void @_ZSt16__throw_bad_castv() #9
  unreachable

127:                                              ; preds = %110
  %128 = getelementptr inbounds %"class.std::ctype", %"class.std::ctype"* %124, i64 0, i32 8
  %129 = load i8, i8* %128, align 8, !tbaa !17
  %130 = icmp eq i8 %129, 0
  br i1 %130, label %134, label %131

131:                                              ; preds = %127
  %132 = getelementptr inbounds %"class.std::ctype", %"class.std::ctype"* %124, i64 0, i32 9, i64 10
  %133 = load i8, i8* %132, align 1, !tbaa !19
  br label %140

134:                                              ; preds = %127
  call void @_ZNKSt5ctypeIcE13_M_widen_initEv(%"class.std::ctype"* nonnull align 8 dereferenceable(570) %124)
  %135 = bitcast %"class.std::ctype"* %124 to i8 (%"class.std::ctype"*, i8)***
  %136 = load i8 (%"class.std::ctype"*, i8)**, i8 (%"class.std::ctype"*, i8)*** %135, align 8, !tbaa !11
  %137 = getelementptr inbounds i8 (%"class.std::ctype"*, i8)*, i8 (%"class.std::ctype"*, i8)** %136, i64 6
  %138 = load i8 (%"class.std::ctype"*, i8)*, i8 (%"class.std::ctype"*, i8)** %137, align 8
  %139 = call signext i8 %138(%"class.std::ctype"* nonnull align 8 dereferenceable(570) %124, i8 signext 10)
  br label %140

140:                                              ; preds = %131, %134
  %141 = phi i8 [ %133, %131 ], [ %139, %134 ]
  %142 = call nonnull align 8 dereferenceable(8) %"class.std::basic_ostream"* @_ZNSo3putEc(%"class.std::basic_ostream"* nonnull align 8 dereferenceable(8) %114, i8 signext %141)
  br label %143

143:                                              ; preds = %60, %140
  %144 = phi %"class.std::basic_ostream"* [ %62, %60 ], [ %142, %140 ]
  %145 = call nonnull align 8 dereferenceable(8) %"class.std::basic_ostream"* @_ZNSo5flushEv(%"class.std::basic_ostream"* nonnull align 8 dereferenceable(8) %144)
  %146 = add nuw nsw i32 %15, 1
  %147 = load i32, i32* %1, align 4, !tbaa !5
  %148 = icmp slt i32 %15, %147
  br i1 %148, label %14, label %149, !llvm.loop !22

149:                                              ; preds = %143, %0
  call void @llvm.lifetime.end.p0i8(i64 120, i8* nonnull %4) #8
  call void @llvm.lifetime.end.p0i8(i64 4, i8* nonnull %6) #8
  call void @llvm.lifetime.end.p0i8(i64 4, i8* nonnull %5) #8
  ret i32 0
}

; Function Attrs: argmemonly mustprogress nofree nosync nounwind willreturn
declare void @llvm.lifetime.start.p0i8(i64 immarg, i8* nocapture) #4

declare nonnull align 8 dereferenceable(16) %"class.std::basic_istream"* @_ZNSirsERi(%"class.std::basic_istream"* nonnull align 8 dereferenceable(16), i32* nonnull align 4 dereferenceable(4)) local_unnamed_addr #0

declare nonnull align 8 dereferenceable(8) %"class.std::basic_ostream"* @_ZNSolsEi(%"class.std::basic_ostream"* nonnull align 8 dereferenceable(8), i32) local_unnamed_addr #0

; Function Attrs: argmemonly mustprogress nofree nosync nounwind willreturn
declare void @llvm.lifetime.end.p0i8(i64 immarg, i8* nocapture) #4

declare nonnull align 8 dereferenceable(8) %"class.std::basic_ostream"* @_ZNSo3putEc(%"class.std::basic_ostream"* nonnull align 8 dereferenceable(8), i8 signext) local_unnamed_addr #0

declare nonnull align 8 dereferenceable(8) %"class.std::basic_ostream"* @_ZNSo5flushEv(%"class.std::basic_ostream"* nonnull align 8 dereferenceable(8)) local_unnamed_addr #0

; Function Attrs: noreturn
declare void @_ZSt16__throw_bad_castv() local_unnamed_addr #5

declare void @_ZNKSt5ctypeIcE13_M_widen_initEv(%"class.std::ctype"* nonnull align 8 dereferenceable(570)) local_unnamed_addr #0

; Function Attrs: sspstrong uwtable
define internal void @_GLOBAL__sub_I_39.cpp() #6 section ".text.startup" {
  tail call void @_ZNSt8ios_base4InitC1Ev(%"class.std::ios_base::Init"* nonnull align 1 dereferenceable(1) @_ZStL8__ioinit)
  %1 = tail call i32 @__cxa_atexit(void (i8*)* bitcast (void (%"class.std::ios_base::Init"*)* @_ZNSt8ios_base4InitD1Ev to void (i8*)*), i8* getelementptr inbounds (%"class.std::ios_base::Init", %"class.std::ios_base::Init"* @_ZStL8__ioinit, i64 0, i32 0), i8* nonnull @__dso_handle) #8
  ret void
}

; Function Attrs: argmemonly nofree nounwind willreturn writeonly
declare void @llvm.memset.p0i8.i64(i8* nocapture writeonly, i8, i64, i1 immarg) #7


!llvm.module.flags = !{!0, !1, !2, !3}
!llvm.ident = !{!4}

!0 = !{i32 1, !"wchar_size", i32 4}
!1 = !{i32 7, !"PIC Level", i32 2}
!2 = !{i32 7, !"PIE Level", i32 2}
!3 = !{i32 7, !"uwtable", i32 1}
!4 = !{!"clang version 13.0.0"}
!5 = !{!6, !6, i64 0}
!6 = !{!"int", !7, i64 0}
!7 = !{!"omnipotent char", !8, i64 0}
!8 = !{!"Simple C++ TBAA"}
!9 = distinct !{!9, !10}
!10 = !{!"llvm.loop.mustprogress"}
!11 = !{!12, !12, i64 0}
!12 = !{!"vtable pointer", !8, i64 0}
!13 = !{!14, !15, i64 240}
!14 = !{!"_ZTSSt9basic_iosIcSt11char_traitsIcEE", !15, i64 216, !7, i64 224, !16, i64 225, !15, i64 232, !15, i64 240, !15, i64 248, !15, i64 256}
!15 = !{!"any pointer", !7, i64 0}
!16 = !{!"bool", !7, i64 0}
!17 = !{!18, !7, i64 56}
!18 = !{!"_ZTSSt5ctypeIcE", !15, i64 16, !16, i64 24, !15, i64 32, !15, i64 40, !15, i64 48, !7, i64 56, !7, i64 57, !7, i64 313, !7, i64 569}
!19 = !{!7, !7, i64 0}
!20 = distinct !{!20, !21}
!21 = !{!"llvm.loop.unroll.disable"}
!22 = distinct !{!22, !10}
